; Function Attrs: mustprogress nofree norecurse nosync nounwind willreturn memory(argmem: read) uwtable
define noundef i32 @_ZNK6icu_7716CollationWeights9incWeightEji(ptr noundef nonnull readonly align 4 captures(none) dereferenceable(164) %0, i32 noundef %1, i32 noundef %2) local_unnamed_addr #3 align 2 {
  %4 = getelementptr inbounds nuw i8, ptr %0, i64 24
  %5 = shl i32 %2, 3
  %6 = sub i32 32, %5
  %7 = lshr i32 %1, %6
  %8 = and i32 %7, 255
  %9 = sext i32 %2 to i64
  %10 = getelementptr inbounds [5 x i32], ptr %4, i64 0, i64 %9
  %11 = load i32, ptr %10, align 4, !tbaa !9
  %12 = icmp ult i32 %8, %11
  br i1 %12, label %._crit_edge, label %.lr.ph

.lr.ph:                                           ; preds = %3
  %13 = getelementptr inbounds nuw i8, ptr %0, i64 4
  br label %14

14:                                               ; preds = %.lr.ph, %14
  %indvars.iv = phi i64 [ %9, %.lr.ph ], [ %indvars.iv.next, %14 ]
  %15 = phi i32 [ %6, %.lr.ph ], [ %28, %14 ]
  %16 = phi i32 [ %5, %.lr.ph ], [ %27, %14 ]
  %.01627 = phi i32 [ %1, %.lr.ph ], [ %25, %14 ]
  %17 = getelementptr inbounds [5 x i32], ptr %13, i64 0, i64 %indvars.iv
  %18 = load i32, ptr %17, align 4, !tbaa !9
  %19 = icmp slt i64 %indvars.iv, 4
  %20 = lshr i32 -1, %16
  %.0.i19 = select i1 %19, i32 %20, i32 0
  %21 = shl i32 -256, %15
  %22 = or i32 %.0.i19, %21
  %23 = and i32 %22, %.01627
  %24 = shl i32 %18, %15
  %25 = or i32 %24, %23
  %indvars.iv.next = add nsw i64 %indvars.iv, -1
  %26 = trunc nsw i64 %indvars.iv.next to i32
  %27 = shl i32 %26, 3
  %28 = sub i32 32, %27
  %29 = lshr i32 %25, %28
  %30 = and i32 %29, 255
  %31 = getelementptr inbounds [5 x i32], ptr %4, i64 0, i64 %indvars.iv.next
  %32 = load i32, ptr %31, align 4, !tbaa !9
  %33 = icmp ult i32 %30, %32
  br i1 %33, label %._crit_edge, label %14

._crit_edge:                                      ; preds = %14, %3
  %.016.lcssa = phi i32 [ %1, %3 ], [ %25, %14 ]
  %.014.lcssa = phi i32 [ %2, %3 ], [ %26, %14 ]
  %.lcssa26 = phi i32 [ %5, %3 ], [ %27, %14 ]
  %.lcssa25 = phi i32 [ %6, %3 ], [ %28, %14 ]
  %.lcssa = phi i32 [ %8, %3 ], [ %30, %14 ]
  %34 = add nuw nsw i32 %.lcssa, 1
  %35 = icmp slt i32 %.014.lcssa, 4
  %36 = lshr i32 -1, %.lcssa26
  %.0.i = select i1 %35, i32 %36, i32 0
  %37 = shl i32 -256, %.lcssa25
  %38 = or i32 %.0.i, %37
  %39 = and i32 %38, %.016.lcssa
  %40 = shl i32 %34, %.lcssa25
  %41 = or i32 %40, %39
  ret i32 %41
}